; Function Attrs: mustprogress nofree norecurse nosync nounwind willreturn memory(argmem: write) uwtable
define hidden void @_ZN3sat3bigC2ER10random_gen(ptr nocapture noundef nonnull writeonly align 8 dereferenceable(80) %this, ptr noundef nonnull align 4 dereferenceable(4) %rand) unnamed_addr #3 align 2 personality ptr @__gxx_personality_v0 {
entry:
  store ptr %rand, ptr %this, align 8
  %m_dag = getelementptr inbounds i8, ptr %this, i64 16
  %m_include_cardinality = getelementptr inbounds i8, ptr %this, i64 65
  store i8 0, ptr %m_include_cardinality, align 1
  %m_del_bin = getelementptr inbounds i8, ptr %this, i64 72
  store ptr null, ptr %m_del_bin, align 8
  tail call void @llvm.memset.p0.i64(ptr noundef nonnull align 8 dereferenceable(48) %m_dag, i8 0, i64 48, i1 false)
  ret void
}